target datalayout = "e-m:e-p270:32:32-p271:32:32-p272:64:64-i64:64-i128:128-f80:128-n8:16:32:64-S128"
target triple = "x86_64-pc-linux-gnu"

%struct.opj_j2k = type { i32, %union.anon, ptr, ptr, %struct.opj_cp, ptr, ptr, ptr, i32, ptr, ptr, i32, i32, i32 }
%union.anon = type { %struct.opj_j2k_dec }
%struct.opj_j2k_dec = type { i32, ptr, ptr, i32, i32, i32, i32, i32, i32, i32, i64, i32, i32, ptr, %struct.opj_j2k_tlm_info, i32, i32, ptr, i8 }
%struct.opj_j2k_tlm_info = type { i32, ptr, i32 }
%struct.opj_cp = type { i16, i32, i32, i32, i32, ptr, i32, i32, i32, ptr, ptr, i32, i32, ptr, ptr, ptr, i32, i32, i32, ptr, %union.anon.0, i32, i8 }
%union.anon.0 = type { %struct.opj_encoding_param }
%struct.opj_encoding_param = type { i32, i32, ptr, i8, i32, i8 }
%struct.opj_j2k_enc = type { i32, i32, i32, i32, i64, ptr, ptr, i32, ptr, i32, ptr, i32, i32, i32, i32 }
%struct.opj_poc = type { i32, i32, i32, i32, i32, i32, i32, i32, i32, i32, [5 x i8], i32, i32, i32, i32, i32, i32, i32, i32, i32, i32, i32, i32, i32, i32, i32, i32, i32, i32, i32, i32, i32, i32, i32, i32, i32 }
%struct.opj_tcp = type { i32, i32, i32, i32, i32, [100 x float], i32, [32 x %struct.opj_poc], i32, ptr, ptr, ptr, i32, i32, [100 x float], ptr, i32, i32, ptr, i32, ptr, ptr, ptr, ptr, i32, i32, ptr, i32, i32, i8 }
%struct.opj_tccp = type { i32, i32, i32, i32, i32, i32, i32, [97 x %struct.opj_stepsize], i32, i32, [33 x i32], [33 x i32], i32 }
%struct.opj_stepsize = type { i32, i32 }

@.str.312 = private unnamed_addr constant [39 x i8] c"Not enough memory to write QCD marker\0A\00", align 1
@.str.313 = private unnamed_addr constant [26 x i8] c"Error writing QCD marker\0A\00", align 1

; Function Attrs: nounwind uwtable
define internal i32 @opj_j2k_get_SQcd_SQcc_size(ptr noundef %0, i32 noundef %1, i32 noundef %2) #0 {
  %4 = alloca i32, align 4
  %5 = alloca ptr, align 8
  %6 = alloca i32, align 4
  %7 = alloca i32, align 4
  %8 = alloca i32, align 4
  %9 = alloca ptr, align 8
  %10 = alloca ptr, align 8
  %11 = alloca ptr, align 8
  %12 = alloca i32, align 4
  store ptr %0, ptr %5, align 8, !tbaa !14
  store i32 %1, ptr %6, align 4, !tbaa !3
  store i32 %2, ptr %7, align 4, !tbaa !3
  call void @llvm.lifetime.start.p0(i64 4, ptr %8) #10
  call void @llvm.lifetime.start.p0(i64 8, ptr %9) #10
  store ptr null, ptr %9, align 8, !tbaa !50
  call void @llvm.lifetime.start.p0(i64 8, ptr %10) #10
  store ptr null, ptr %10, align 8, !tbaa !103
  call void @llvm.lifetime.start.p0(i64 8, ptr %11) #10
  store ptr null, ptr %11, align 8, !tbaa !138
  %13 = load ptr, ptr %5, align 8, !tbaa !14
  %14 = getelementptr inbounds nuw %struct.opj_j2k, ptr %13, i32 0, i32 4
  store ptr %14, ptr %9, align 8, !tbaa !50
  %15 = load ptr, ptr %9, align 8, !tbaa !50
  %16 = getelementptr inbounds nuw %struct.opj_cp, ptr %15, i32 0, i32 19
  %17 = load ptr, ptr %16, align 8, !tbaa !102
  %18 = load i32, ptr %6, align 4, !tbaa !3
  %19 = zext i32 %18 to i64
  %20 = getelementptr inbounds nuw %struct.opj_tcp, ptr %17, i64 %19
  store ptr %20, ptr %10, align 8, !tbaa !103
  %21 = load ptr, ptr %10, align 8, !tbaa !103
  %22 = getelementptr inbounds nuw %struct.opj_tcp, ptr %21, i32 0, i32 15
  %23 = load ptr, ptr %22, align 8, !tbaa !131
  %24 = load i32, ptr %7, align 4, !tbaa !3
  %25 = zext i32 %24 to i64
  %26 = getelementptr inbounds nuw %struct.opj_tccp, ptr %23, i64 %25
  store ptr %26, ptr %11, align 8, !tbaa !138
  %27 = load ptr, ptr %11, align 8, !tbaa !138
  %28 = getelementptr inbounds nuw %struct.opj_tccp, ptr %27, i32 0, i32 6
  %29 = load i32, ptr %28, align 4, !tbaa !153
  %30 = icmp eq i32 %29, 1
  br i1 %30, label %31, label %32

31:                                               ; preds = %3
  br label %38

32:                                               ; preds = %3
  %33 = load ptr, ptr %11, align 8, !tbaa !138
  %34 = getelementptr inbounds nuw %struct.opj_tccp, ptr %33, i32 0, i32 1
  %35 = load i32, ptr %34, align 4, !tbaa !146
  %36 = mul i32 %35, 3
  %37 = sub i32 %36, 2
  br label %38

38:                                               ; preds = %32, %31
  %39 = phi i32 [ 1, %31 ], [ %37, %32 ]
  store i32 %39, ptr %8, align 4, !tbaa !3
  %40 = load ptr, ptr %11, align 8, !tbaa !138
  %41 = getelementptr inbounds nuw %struct.opj_tccp, ptr %40, i32 0, i32 6
  %42 = load i32, ptr %41, align 4, !tbaa !153
  %43 = icmp eq i32 %42, 0
  br i1 %43, label %44, label %47

44:                                               ; preds = %38
  %45 = load i32, ptr %8, align 4, !tbaa !3
  %46 = add i32 1, %45
  store i32 %46, ptr %4, align 4
  store i32 1, ptr %12, align 4
  br label %51

47:                                               ; preds = %38
  %48 = load i32, ptr %8, align 4, !tbaa !3
  %49 = mul i32 2, %48
  %50 = add i32 1, %49
  store i32 %50, ptr %4, align 4
  store i32 1, ptr %12, align 4
  br label %51

51:                                               ; preds = %47, %44
  call void @llvm.lifetime.end.p0(i64 8, ptr %11) #10
  call void @llvm.lifetime.end.p0(i64 8, ptr %10) #10
  call void @llvm.lifetime.end.p0(i64 8, ptr %9) #10
  call void @llvm.lifetime.end.p0(i64 4, ptr %8) #10
  %52 = load i32, ptr %4, align 4
  ret i32 %52
}

; Function Attrs: nounwind uwtable
define internal i32 @opj_j2k_write_qcd(ptr noundef %0, ptr noundef %1, ptr noundef %2) #0 {
  %4 = alloca i32, align 4
  %5 = alloca ptr, align 8
  %6 = alloca ptr, align 8
  %7 = alloca ptr, align 8
  %8 = alloca i32, align 4
  %9 = alloca i32, align 4
  %10 = alloca ptr, align 8
  %11 = alloca ptr, align 8
  %12 = alloca i32, align 4
  store ptr %0, ptr %5, align 8, !tbaa !14
  store ptr %1, ptr %6, align 8, !tbaa !206
  store ptr %2, ptr %7, align 8, !tbaa !48
  call void @llvm.lifetime.start.p0(i64 4, ptr %8) #10
  call void @llvm.lifetime.start.p0(i64 4, ptr %9) #10
  call void @llvm.lifetime.start.p0(i64 8, ptr %10) #10
  store ptr null, ptr %10, align 8, !tbaa !44
  %13 = load ptr, ptr %5, align 8, !tbaa !14
  %14 = load ptr, ptr %5, align 8, !tbaa !14
  %15 = getelementptr inbounds nuw %struct.opj_j2k, ptr %14, i32 0, i32 8
  %16 = load i32, ptr %15, align 8, !tbaa !248
  %17 = call i32 @opj_j2k_get_SQcd_SQcc_size(ptr noundef %13, i32 noundef %16, i32 noundef 0)
  %18 = add i32 4, %17
  store i32 %18, ptr %8, align 4, !tbaa !3
  %19 = load i32, ptr %8, align 4, !tbaa !3
  store i32 %19, ptr %9, align 4, !tbaa !3
  %20 = load i32, ptr %8, align 4, !tbaa !3
  %21 = load ptr, ptr %5, align 8, !tbaa !14
  %22 = getelementptr inbounds nuw %struct.opj_j2k, ptr %21, i32 0, i32 1
  %23 = getelementptr inbounds nuw %struct.opj_j2k_enc, ptr %22, i32 0, i32 11
  %24 = load i32, ptr %23, align 8, !tbaa !20
  %25 = icmp ugt i32 %20, %24
  br i1 %25, label %26, label %61

26:                                               ; preds = %3
  call void @llvm.lifetime.start.p0(i64 8, ptr %11) #10
  %27 = load ptr, ptr %5, align 8, !tbaa !14
  %28 = getelementptr inbounds nuw %struct.opj_j2k, ptr %27, i32 0, i32 1
  %29 = getelementptr inbounds nuw %struct.opj_j2k_enc, ptr %28, i32 0, i32 10
  %30 = load ptr, ptr %29, align 8, !tbaa !20
  %31 = load i32, ptr %8, align 4, !tbaa !3
  %32 = zext i32 %31 to i64
  %33 = call ptr @opj_realloc(ptr noundef %30, i64 noundef %32)
  store ptr %33, ptr %11, align 8, !tbaa !44
  %34 = load ptr, ptr %11, align 8, !tbaa !44
  %35 = icmp ne ptr %34, null
  br i1 %35, label %49, label %36

36:                                               ; preds = %26
  %37 = load ptr, ptr %5, align 8, !tbaa !14
  %38 = getelementptr inbounds nuw %struct.opj_j2k, ptr %37, i32 0, i32 1
  %39 = getelementptr inbounds nuw %struct.opj_j2k_enc, ptr %38, i32 0, i32 10
  %40 = load ptr, ptr %39, align 8, !tbaa !20
  call void @opj_free(ptr noundef %40)
  %41 = load ptr, ptr %5, align 8, !tbaa !14
  %42 = getelementptr inbounds nuw %struct.opj_j2k, ptr %41, i32 0, i32 1
  %43 = getelementptr inbounds nuw %struct.opj_j2k_enc, ptr %42, i32 0, i32 10
  store ptr null, ptr %43, align 8, !tbaa !20
  %44 = load ptr, ptr %5, align 8, !tbaa !14
  %45 = getelementptr inbounds nuw %struct.opj_j2k, ptr %44, i32 0, i32 1
  %46 = getelementptr inbounds nuw %struct.opj_j2k_enc, ptr %45, i32 0, i32 11
  store i32 0, ptr %46, align 8, !tbaa !20
  %47 = load ptr, ptr %7, align 8, !tbaa !48
  %48 = call i32 (ptr, i32, ptr, ...) @opj_event_msg(ptr noundef %47, i32 noundef 1, ptr noundef @.str.312)
  store i32 0, ptr %4, align 4
  store i32 1, ptr %12, align 4
  br label %58

49:                                               ; preds = %26
  %50 = load ptr, ptr %11, align 8, !tbaa !44
  %51 = load ptr, ptr %5, align 8, !tbaa !14
  %52 = getelementptr inbounds nuw %struct.opj_j2k, ptr %51, i32 0, i32 1
  %53 = getelementptr inbounds nuw %struct.opj_j2k_enc, ptr %52, i32 0, i32 10
  store ptr %50, ptr %53, align 8, !tbaa !20
  %54 = load i32, ptr %8, align 4, !tbaa !3
  %55 = load ptr, ptr %5, align 8, !tbaa !14
  %56 = getelementptr inbounds nuw %struct.opj_j2k, ptr %55, i32 0, i32 1
  %57 = getelementptr inbounds nuw %struct.opj_j2k_enc, ptr %56, i32 0, i32 11
  store i32 %54, ptr %57, align 8, !tbaa !20
  store i32 0, ptr %12, align 4
  br label %58

58:                                               ; preds = %49, %36
  call void @llvm.lifetime.end.p0(i64 8, ptr %11) #10
  %59 = load i32, ptr %12, align 4
  switch i32 %59, label %108 [
    i32 0, label %60
  ]

60:                                               ; preds = %58
  br label %61

61:                                               ; preds = %60, %3
  %62 = load ptr, ptr %5, align 8, !tbaa !14
  %63 = getelementptr inbounds nuw %struct.opj_j2k, ptr %62, i32 0, i32 1
  %64 = getelementptr inbounds nuw %struct.opj_j2k_enc, ptr %63, i32 0, i32 10
  %65 = load ptr, ptr %64, align 8, !tbaa !20
  store ptr %65, ptr %10, align 8, !tbaa !44
  %66 = load ptr, ptr %10, align 8, !tbaa !44
  call void @opj_write_bytes_LE(ptr noundef %66, i32 noundef 65372, i32 noundef 2)
  %67 = load ptr, ptr %10, align 8, !tbaa !44
  %68 = getelementptr inbounds i8, ptr %67, i64 2
  store ptr %68, ptr %10, align 8, !tbaa !44
  %69 = load ptr, ptr %10, align 8, !tbaa !44
  %70 = load i32, ptr %8, align 4, !tbaa !3
  %71 = sub i32 %70, 2
  call void @opj_write_bytes_LE(ptr noundef %69, i32 noundef %71, i32 noundef 2)
  %72 = load ptr, ptr %10, align 8, !tbaa !44
  %73 = getelementptr inbounds i8, ptr %72, i64 2
  store ptr %73, ptr %10, align 8, !tbaa !44
  %74 = load i32, ptr %9, align 4, !tbaa !3
  %75 = sub i32 %74, 4
  store i32 %75, ptr %9, align 4, !tbaa !3
  %76 = load ptr, ptr %5, align 8, !tbaa !14
  %77 = load ptr, ptr %5, align 8, !tbaa !14
  %78 = getelementptr inbounds nuw %struct.opj_j2k, ptr %77, i32 0, i32 8
  %79 = load i32, ptr %78, align 8, !tbaa !248
  %80 = load ptr, ptr %10, align 8, !tbaa !44
  %81 = load ptr, ptr %7, align 8, !tbaa !48
  %82 = call i32 @opj_j2k_write_SQcd_SQcc(ptr noundef %76, i32 noundef %79, i32 noundef 0, ptr noundef %80, ptr noundef %9, ptr noundef %81)
  %83 = icmp ne i32 %82, 0
  br i1 %83, label %87, label %84

84:                                               ; preds = %61
  %85 = load ptr, ptr %7, align 8, !tbaa !48
  %86 = call i32 (ptr, i32, ptr, ...) @opj_event_msg(ptr noundef %85, i32 noundef 1, ptr noundef @.str.313)
  store i32 0, ptr %4, align 4
  store i32 1, ptr %12, align 4
  br label %108

87:                                               ; preds = %61
  %88 = load i32, ptr %9, align 4, !tbaa !3
  %89 = icmp ne i32 %88, 0
  br i1 %89, label %90, label %93

90:                                               ; preds = %87
  %91 = load ptr, ptr %7, align 8, !tbaa !48
  %92 = call i32 (ptr, i32, ptr, ...) @opj_event_msg(ptr noundef %91, i32 noundef 1, ptr noundef @.str.313)
  store i32 0, ptr %4, align 4
  store i32 1, ptr %12, align 4
  br label %108

93:                                               ; preds = %87
  %94 = load ptr, ptr %6, align 8, !tbaa !206
  %95 = load ptr, ptr %5, align 8, !tbaa !14
  %96 = getelementptr inbounds nuw %struct.opj_j2k, ptr %95, i32 0, i32 1
  %97 = getelementptr inbounds nuw %struct.opj_j2k_enc, ptr %96, i32 0, i32 10
  %98 = load ptr, ptr %97, align 8, !tbaa !20
  %99 = load i32, ptr %8, align 4, !tbaa !3
  %100 = zext i32 %99 to i64
  %101 = load ptr, ptr %7, align 8, !tbaa !48
  %102 = call i64 @opj_stream_write_data(ptr noundef %94, ptr noundef %98, i64 noundef %100, ptr noundef %101)
  %103 = load i32, ptr %8, align 4, !tbaa !3
  %104 = zext i32 %103 to i64
  %105 = icmp ne i64 %102, %104
  br i1 %105, label %106, label %107

106:                                              ; preds = %93
  store i32 0, ptr %4, align 4
  store i32 1, ptr %12, align 4
  br label %108

107:                                              ; preds = %93
  store i32 1, ptr %4, align 4
  store i32 1, ptr %12, align 4
  br label %108

108:                                              ; preds = %107, %106, %90, %84, %58
  call void @llvm.lifetime.end.p0(i64 8, ptr %10) #10
  call void @llvm.lifetime.end.p0(i64 4, ptr %9) #10
  call void @llvm.lifetime.end.p0(i64 4, ptr %8) #10
  %109 = load i32, ptr %4, align 4
  ret i32 %109
}