; Function Attrs: nounwind uwtable
define internal range(i32 0, 2) i32 @opj_j2k_write_qcd(ptr noundef captures(none) %0, ptr noundef %1, ptr noundef %2) #3 {
  %4 = alloca i32, align 4
  call void @llvm.lifetime.start.p0(i64 4, ptr nonnull %4) #21
  %5 = getelementptr inbounds nuw i8, ptr %0, i64 336
  %6 = load i32, ptr %5, align 8, !tbaa !220
  %7 = getelementptr i8, ptr %0, i64 264
  %.val = load ptr, ptr %7, align 8, !tbaa !34
  %8 = zext i32 %6 to i64
  %9 = getelementptr inbounds nuw %struct.opj_tcp, ptr %.val, i64 %8, i32 15
  %10 = load ptr, ptr %9, align 8, !tbaa !120
  %11 = getelementptr inbounds nuw i8, ptr %10, i64 24
  %12 = load i32, ptr %11, align 4, !tbaa !139
  %13 = icmp eq i32 %12, 1
  br i1 %13, label %opj_j2k_get_SQcd_SQcc_size.exit, label %14

14:                                               ; preds = %3
  %15 = getelementptr inbounds nuw i8, ptr %10, i64 4
  %16 = load i32, ptr %15, align 4, !tbaa !132
  %17 = mul i32 %16, 3
  %18 = add i32 %17, -2
  br label %opj_j2k_get_SQcd_SQcc_size.exit

opj_j2k_get_SQcd_SQcc_size.exit:                  ; preds = %3, %14
  %19 = phi i32 [ %18, %14 ], [ 1, %3 ]
  %20 = icmp eq i32 %12, 0
  %21 = add i32 %19, 1
  %22 = shl i32 %19, 1
  %23 = or disjoint i32 %22, 1
  %.0.i = select i1 %20, i32 %21, i32 %23
  %24 = add i32 %.0.i, 4
  %25 = getelementptr inbounds nuw i8, ptr %0, i64 80
  %26 = load i32, ptr %25, align 8, !tbaa !12
  %27 = icmp ugt i32 %24, %26
  %28 = getelementptr inbounds nuw i8, ptr %0, i64 72
  %29 = load ptr, ptr %28, align 8, !tbaa !12
  br i1 %27, label %30, label %opj_j2k_get_SQcd_SQcc_size.exit._crit_edge

30:                                               ; preds = %opj_j2k_get_SQcd_SQcc_size.exit
  %31 = zext i32 %24 to i64
  %32 = tail call ptr @opj_realloc(ptr noundef %29, i64 noundef %31) #21
  %.not.not = icmp eq ptr %32, null
  br i1 %.not.not, label %.thread, label %35

.thread:                                          ; preds = %30
  %33 = load ptr, ptr %28, align 8, !tbaa !12
  tail call void @opj_free(ptr noundef %33) #21
  store ptr null, ptr %28, align 8, !tbaa !12
  store i32 0, ptr %25, align 8, !tbaa !12
  %34 = tail call i32 (ptr, i32, ptr, ...) @opj_event_msg(ptr noundef %2, i32 noundef 1, ptr noundef nonnull @.str.312) #21
  br label %53

35:                                               ; preds = %30
  store ptr %32, ptr %28, align 8, !tbaa !12
  store i32 %24, ptr %25, align 8, !tbaa !12
  br label %opj_j2k_get_SQcd_SQcc_size.exit._crit_edge

opj_j2k_get_SQcd_SQcc_size.exit._crit_edge:       ; preds = %opj_j2k_get_SQcd_SQcc_size.exit, %35
  %36 = phi ptr [ %32, %35 ], [ %29, %opj_j2k_get_SQcd_SQcc_size.exit ]
  %37 = getelementptr inbounds nuw i8, ptr %0, i64 72
  tail call void @opj_write_bytes_LE(ptr noundef %36, i32 noundef 65372, i32 noundef 2) #21
  %38 = getelementptr inbounds nuw i8, ptr %36, i64 2
  %39 = add i32 %.0.i, 2
  tail call void @opj_write_bytes_LE(ptr noundef nonnull %38, i32 noundef %39, i32 noundef 2) #21
  %40 = getelementptr inbounds nuw i8, ptr %36, i64 4
  store i32 %.0.i, ptr %4, align 4, !tbaa !125
  %41 = load i32, ptr %5, align 8, !tbaa !220
  %.val39 = load ptr, ptr %7, align 8, !tbaa !34
  %42 = call fastcc i32 @opj_j2k_write_SQcd_SQcc(ptr %.val39, i32 noundef %41, i32 noundef 0, ptr noundef nonnull %40, ptr noundef %4, ptr noundef %2)
  %.not = icmp eq i32 %42, 0
  br i1 %.not, label %43, label %45

43:                                               ; preds = %opj_j2k_get_SQcd_SQcc_size.exit._crit_edge
  %44 = tail call i32 (ptr, i32, ptr, ...) @opj_event_msg(ptr noundef %2, i32 noundef 1, ptr noundef nonnull @.str.313) #21
  br label %53

45:                                               ; preds = %opj_j2k_get_SQcd_SQcc_size.exit._crit_edge
  %46 = load i32, ptr %4, align 4, !tbaa !125
  %.not37 = icmp eq i32 %46, 0
  br i1 %.not37, label %49, label %47

47:                                               ; preds = %45
  %48 = tail call i32 (ptr, i32, ptr, ...) @opj_event_msg(ptr noundef %2, i32 noundef 1, ptr noundef nonnull @.str.313) #21
  br label %53

49:                                               ; preds = %45
  %50 = load ptr, ptr %37, align 8, !tbaa !12
  %51 = zext i32 %24 to i64
  %52 = tail call i64 @opj_stream_write_data(ptr noundef %1, ptr noundef %50, i64 noundef %51, ptr noundef %2) #21
  %.not38 = icmp eq i64 %52, %51
  %. = zext i1 %.not38 to i32
  br label %53

53:                                               ; preds = %.thread, %49, %47, %43
  %.1 = phi i32 [ 0, %47 ], [ 0, %43 ], [ %., %49 ], [ 0, %.thread ]
  call void @llvm.lifetime.end.p0(i64 4, ptr nonnull %4) #21
  ret i32 %.1
}